(dp1
S'friend_id'
p2
(dp3
S'length'
p4
S'reference auth_user'
p5
sS'unique'
p6
I00
sS'sortable'
p7
I2
sS'sql'
p8
S'INT'
p9
sS'notnull'
p10
I00
sS'type'
p11
S'integer'
p12
ssS'id'
p13
(dp14
g4
I512
sg6
I00
sg7
I1
sg8
S'INT AUTO_INCREMENT NOT NULL'
p15
sg10
I00
sg11
g13
ss.