(dp1
S'friend_id'
p2
(dp3
S'sortable'
p4
I2
sS'sql'
p5
S'INT'
p6
sS'length'
p7
S'reference auth_user'
p8
sS'notnull'
p9
I00
sS'unique'
p10
I00
sS'type'
p11
S'integer'
p12
ssS'user_id'
p13
(dp14
S'length'
p15
S'reference auth_user'
p16
sS'unique'
p17
I00
sS'sortable'
p18
I2
sS'sql'
p19
S'INT'
p20
sS'notnull'
p21
I00
sS'type'
p22
S'integer'
p23
ssS'id'
p24
(dp25
g4
I1
sg5
S'INT AUTO_INCREMENT NOT NULL'
p26
sg7
I512
sg9
I00
sg10
I00
sg11
S'id'
p27
ss.